; ModuleID = '20/1356.c'
source_filename = "20/1356.c"
target datalayout = "e-m:e-p270:32:32-p271:32:32-p272:64:64-i64:64-f80:128-n8:16:32:64-S128"
target triple = "x86_64-pc-linux-gnu"

@.str = private unnamed_addr constant [5 x i8] c"%s%s\00", align 1
@.str.1 = private unnamed_addr constant [3 x i8] c"%c\00", align 1
@.str.2 = private unnamed_addr constant [7 x i8] c"%c%c%c\00", align 1

; Function Attrs: noinline nounwind uwtable
define dso_local i32 @main() #0 {
  %1 = alloca i32, align 4
  %2 = alloca [20 x i8], align 16
  %3 = alloca i8, align 1
  %4 = alloca [8 x i8], align 1
  %5 = alloca i32, align 4
  %6 = alloca i32, align 4
  %7 = alloca i32, align 4
  store i32 0, i32* %1, align 4
  br label %8

8:                                                ; preds = %0, %115
  store i32 0, i32* %6, align 4
  %9 = call i32 @getchar()
  %10 = trunc i32 %9 to i8
  store i8 %10, i8* %3, align 1
  %11 = load i8, i8* %3, align 1
  %12 = sext i8 %11 to i32
  %13 = icmp eq i32 %12, 10
  br i1 %13, label %14, label %17

14:                                               ; preds = %8
  %15 = call i32 @getchar()
  %16 = trunc i32 %15 to i8
  store i8 %16, i8* %3, align 1
  br label %17

17:                                               ; preds = %14, %8
  %18 = load i8, i8* %3, align 1
  %19 = sext i8 %18 to i32
  %20 = icmp eq i32 %19, -1
  br i1 %20, label %21, label %22

21:                                               ; preds = %17
  br label %116

22:                                               ; preds = %17
  %23 = call i32 (i8*, ...) @__isoc99_scanf(i8* getelementptr inbounds ([5 x i8], [5 x i8]* @.str, i64 0, i64 0), [20 x i8]* %2, [8 x i8]* %4)
  %24 = getelementptr inbounds [20 x i8], [20 x i8]* %2, i64 0, i64 0
  %25 = call i64 @strlen(i8* %24) #3
  %26 = trunc i64 %25 to i32
  store i32 %26, i32* %5, align 4
  %27 = load i32, i32* %5, align 4
  %28 = sub nsw i32 %27, 1
  store i32 %28, i32* %7, align 4
  br label %29

29:                                               ; preds = %41, %22
  %30 = load i32, i32* %7, align 4
  %31 = icmp sge i32 %30, 0
  br i1 %31, label %32, label %44

32:                                               ; preds = %29
  %33 = load i32, i32* %7, align 4
  %34 = sext i32 %33 to i64
  %35 = getelementptr inbounds [20 x i8], [20 x i8]* %2, i64 0, i64 %34
  %36 = load i8, i8* %35, align 1
  %37 = load i32, i32* %7, align 4
  %38 = add nsw i32 %37, 1
  %39 = sext i32 %38 to i64
  %40 = getelementptr inbounds [20 x i8], [20 x i8]* %2, i64 0, i64 %39
  store i8 %36, i8* %40, align 1
  br label %41

41:                                               ; preds = %32
  %42 = load i32, i32* %7, align 4
  %43 = add nsw i32 %42, -1
  store i32 %43, i32* %7, align 4
  br label %29

44:                                               ; preds = %29
  %45 = load i8, i8* %3, align 1
  %46 = getelementptr inbounds [20 x i8], [20 x i8]* %2, i64 0, i64 0
  store i8 %45, i8* %46, align 16
  %47 = load i32, i32* %5, align 4
  %48 = add nsw i32 %47, 1
  store i32 %48, i32* %5, align 4
  %49 = sext i32 %48 to i64
  %50 = getelementptr inbounds [20 x i8], [20 x i8]* %2, i64 0, i64 %49
  store i8 0, i8* %50, align 1
  store i32 1, i32* %7, align 4
  br label %51

51:                                               ; preds = %70, %44
  %52 = load i32, i32* %7, align 4
  %53 = load i32, i32* %5, align 4
  %54 = icmp slt i32 %52, %53
  br i1 %54, label %55, label %73

55:                                               ; preds = %51
  %56 = load i32, i32* %7, align 4
  %57 = sext i32 %56 to i64
  %58 = getelementptr inbounds [20 x i8], [20 x i8]* %2, i64 0, i64 %57
  %59 = load i8, i8* %58, align 1
  %60 = sext i8 %59 to i32
  %61 = load i32, i32* %6, align 4
  %62 = sext i32 %61 to i64
  %63 = getelementptr inbounds [20 x i8], [20 x i8]* %2, i64 0, i64 %62
  %64 = load i8, i8* %63, align 1
  %65 = sext i8 %64 to i32
  %66 = icmp sgt i32 %60, %65
  br i1 %66, label %67, label %69

67:                                               ; preds = %55
  %68 = load i32, i32* %7, align 4
  store i32 %68, i32* %6, align 4
  br label %69

69:                                               ; preds = %67, %55
  br label %70

70:                                               ; preds = %69
  %71 = load i32, i32* %7, align 4
  %72 = add nsw i32 %71, 1
  store i32 %72, i32* %7, align 4
  br label %51

73:                                               ; preds = %51
  store i32 0, i32* %7, align 4
  br label %74

74:                                               ; preds = %85, %73
  %75 = load i32, i32* %7, align 4
  %76 = load i32, i32* %6, align 4
  %77 = icmp sle i32 %75, %76
  br i1 %77, label %78, label %88

78:                                               ; preds = %74
  %79 = load i32, i32* %7, align 4
  %80 = sext i32 %79 to i64
  %81 = getelementptr inbounds [20 x i8], [20 x i8]* %2, i64 0, i64 %80
  %82 = load i8, i8* %81, align 1
  %83 = sext i8 %82 to i32
  %84 = call i32 (i8*, ...) @printf(i8* getelementptr inbounds ([3 x i8], [3 x i8]* @.str.1, i64 0, i64 0), i32 %83)
  br label %85

85:                                               ; preds = %78
  %86 = load i32, i32* %7, align 4
  %87 = add nsw i32 %86, 1
  store i32 %87, i32* %7, align 4
  br label %74

88:                                               ; preds = %74
  %89 = getelementptr inbounds [8 x i8], [8 x i8]* %4, i64 0, i64 0
  %90 = load i8, i8* %89, align 1
  %91 = sext i8 %90 to i32
  %92 = getelementptr inbounds [8 x i8], [8 x i8]* %4, i64 0, i64 1
  %93 = load i8, i8* %92, align 1
  %94 = sext i8 %93 to i32
  %95 = getelementptr inbounds [8 x i8], [8 x i8]* %4, i64 0, i64 2
  %96 = load i8, i8* %95, align 1
  %97 = sext i8 %96 to i32
  %98 = call i32 (i8*, ...) @printf(i8* getelementptr inbounds ([7 x i8], [7 x i8]* @.str.2, i64 0, i64 0), i32 %91, i32 %94, i32 %97)
  br label %99

99:                                               ; preds = %110, %88
  %100 = load i32, i32* %7, align 4
  %101 = load i32, i32* %5, align 4
  %102 = icmp slt i32 %100, %101
  br i1 %102, label %103, label %113

103:                                              ; preds = %99
  %104 = load i32, i32* %7, align 4
  %105 = sext i32 %104 to i64
  %106 = getelementptr inbounds [20 x i8], [20 x i8]* %2, i64 0, i64 %105
  %107 = load i8, i8* %106, align 1
  %108 = sext i8 %107 to i32
  %109 = call i32 (i8*, ...) @printf(i8* getelementptr inbounds ([3 x i8], [3 x i8]* @.str.1, i64 0, i64 0), i32 %108)
  br label %110

110:                                              ; preds = %103
  %111 = load i32, i32* %7, align 4
  %112 = add nsw i32 %111, 1
  store i32 %112, i32* %7, align 4
  br label %99

113:                                              ; preds = %99
  %114 = call i32 @putchar(i32 10)
  br label %115

115:                                              ; preds = %113
  br label %8

116:                                              ; preds = %21
  %117 = load i32, i32* %1, align 4
  ret i32 %117
}

declare dso_local i32 @getchar() #1

declare dso_local i32 @__isoc99_scanf(i8*, ...) #1

; Function Attrs: nounwind readonly
declare dso_local i64 @strlen(i8*) #2

declare dso_local i32 @printf(i8*, ...) #1

declare dso_local i32 @putchar(i32) #1


!llvm.module.flags = !{!0}
!llvm.ident = !{!1}

!0 = !{i32 1, !"wchar_size", i32 4}
!1 = !{!"clang version 10.0.0-4ubuntu1 "}
